target datalayout = "e-m:e-p270:32:32-p271:32:32-p272:64:64-i64:64-i128:128-f80:128-n8:16:32:64-S128"
target triple = "x86_64-pc-linux-gnu"

%struct.AVCodecContext = type { ptr, i32, i32, ptr, i32, i32, ptr, ptr, ptr, i64, i32, i32, ptr, i32, %struct.AVRational, %struct.AVRational, %struct.AVRational, i32, i32, i32, i32, i32, %struct.AVRational, i32, i32, i32, i32, i32, i32, i32, i32, i32, i32, i32, ptr, ptr, i32, float, float, float, float, float, float, float, float, float, i32, i32, i32, i32, i32, i32, i32, i32, i32, i32, i32, i32, ptr, ptr, ptr, i32, i32, i32, i32, i32, i32, i32, i32, i32, i32, %struct.AVChannelLayout, i32, i32, i32, i32, i32, i32, i32, i32, ptr, i32, i32, i32, float, float, i32, i32, i32, i32, i32, ptr, i64, i64, float, float, i32, i32, ptr, ptr, i32, i32, i32, i32, i32, ptr, ptr, ptr, ptr, i32, i32, [8 x i64], i32, i32, i32, i32, i32, i32, i32, ptr, ptr, i32, i32, i32, i32, i32, i32, i32, i32, i32, i32, ptr, ptr, i32, i32, ptr, ptr, ptr, ptr, i32, i32, i64, i32, i32, i64, ptr, i64, ptr, i32, ptr, i32 }
%struct.AVRational = type { i32, i32 }
%struct.AVChannelLayout = type { i32, i32, %union.anon.0, ptr }
%union.anon.0 = type { i64 }
%struct.Vp3DecodeContext = type { ptr, i32, i32, i32, i32, i32, i32, i32, i32, %struct.ProgressFrame, %struct.ProgressFrame, %struct.ProgressFrame, i32, [64 x i8], [64 x i8], %struct.HpelDSPContext, %struct.VideoDSPContext, %struct.VP3DSPContext, [64 x i16], i32, i32, i32, [3 x i32], i32, [3 x i32], i32, i32, i32, i32, i32, i32, i32, i32, i32, ptr, i32, i32, i32, i32, i32, i32, i32, i32, [2 x i32], [2 x i32], ptr, [3 x i32], [3 x i32], i8, i8, i32, [2 x ptr], [2 x [64 x i16]], [64 x i32], [384 x [64 x i8]], [2 x [3 x i8]], [2 x [3 x [64 x i8]]], [2 x [3 x [64 x i16]]], [3 x [64 x ptr]], ptr, [3 x [64 x i32]], i32, [3 x ptr], ptr, ptr, [3 x i32], ptr, [8 x i8], [3 x [2 x [3 x [64 x i16]]]], ptr, ptr, ptr, [80 x %struct.HuffTable], [64 x i8], [258 x i32], ptr, [8 x i8] }
%struct.ProgressFrame = type { ptr, ptr }
%struct.HpelDSPContext = type { [4 x [4 x ptr]], [4 x [4 x ptr]], [4 x [4 x ptr]], [4 x ptr] }
%struct.VideoDSPContext = type { ptr, ptr }
%struct.VP3DSPContext = type { ptr, ptr, ptr, ptr, ptr, ptr, ptr, ptr }
%struct.HuffTable = type { [32 x %struct.HuffEntry], i8 }
%struct.HuffEntry = type { i8, i8 }

; Function Attrs: cold nounwind optsize uwtable
define internal i32 @allocate_tables(ptr noundef %0) #1 {
  %2 = alloca i32, align 4
  %3 = alloca ptr, align 8
  %4 = alloca ptr, align 8
  %5 = alloca i32, align 4
  %6 = alloca i32, align 4
  %7 = alloca i32, align 4
  store ptr %0, ptr %3, align 8, !tbaa !4
  call void @llvm.lifetime.start.p0(i64 8, ptr %4) #9
  %8 = load ptr, ptr %3, align 8, !tbaa !4
  %9 = getelementptr inbounds nuw %struct.AVCodecContext, ptr %8, i32 0, i32 6
  %10 = load ptr, ptr %9, align 8, !tbaa !9
  store ptr %10, ptr %4, align 8, !tbaa !29
  call void @llvm.lifetime.start.p0(i64 4, ptr %5) #9
  call void @llvm.lifetime.start.p0(i64 4, ptr %6) #9
  %11 = load ptr, ptr %3, align 8, !tbaa !4
  call void @free_tables(ptr noundef %11) #10
  %12 = load ptr, ptr %4, align 8, !tbaa !29
  %13 = getelementptr inbounds nuw %struct.Vp3DecodeContext, ptr %12, i32 0, i32 43
  %14 = getelementptr inbounds [2 x i32], ptr %13, i64 0, i64 0
  %15 = load i32, ptr %14, align 8, !tbaa !31
  %16 = load ptr, ptr %4, align 8, !tbaa !29
  %17 = getelementptr inbounds nuw %struct.Vp3DecodeContext, ptr %16, i32 0, i32 44
  %18 = getelementptr inbounds [2 x i32], ptr %17, i64 0, i64 0
  %19 = load i32, ptr %18, align 16, !tbaa !31
  %20 = mul nsw i32 %15, %19
  store i32 %20, ptr %5, align 4, !tbaa !31
  %21 = load ptr, ptr %4, align 8, !tbaa !29
  %22 = getelementptr inbounds nuw %struct.Vp3DecodeContext, ptr %21, i32 0, i32 43
  %23 = getelementptr inbounds [2 x i32], ptr %22, i64 0, i64 1
  %24 = load i32, ptr %23, align 4, !tbaa !31
  %25 = load ptr, ptr %4, align 8, !tbaa !29
  %26 = getelementptr inbounds nuw %struct.Vp3DecodeContext, ptr %25, i32 0, i32 44
  %27 = getelementptr inbounds [2 x i32], ptr %26, i64 0, i64 1
  %28 = load i32, ptr %27, align 4, !tbaa !31
  %29 = mul nsw i32 %24, %28
  store i32 %29, ptr %6, align 4, !tbaa !31
  %30 = load ptr, ptr %4, align 8, !tbaa !29
  %31 = getelementptr inbounds nuw %struct.Vp3DecodeContext, ptr %30, i32 0, i32 25
  %32 = load i32, ptr %31, align 8, !tbaa !117
  %33 = load ptr, ptr %4, align 8, !tbaa !29
  %34 = getelementptr inbounds nuw %struct.Vp3DecodeContext, ptr %33, i32 0, i32 41
  %35 = load i32, ptr %34, align 16, !tbaa !124
  %36 = icmp sgt i32 %32, %35
  br i1 %36, label %37, label %41

37:                                               ; preds = %1
  %38 = load ptr, ptr %4, align 8, !tbaa !29
  %39 = getelementptr inbounds nuw %struct.Vp3DecodeContext, ptr %38, i32 0, i32 25
  %40 = load i32, ptr %39, align 8, !tbaa !117
  br label %45

41:                                               ; preds = %1
  %42 = load ptr, ptr %4, align 8, !tbaa !29
  %43 = getelementptr inbounds nuw %struct.Vp3DecodeContext, ptr %42, i32 0, i32 41
  %44 = load i32, ptr %43, align 16, !tbaa !124
  br label %45

45:                                               ; preds = %41, %37
  %46 = phi i32 [ %40, %37 ], [ %44, %41 ]
  %47 = sext i32 %46 to i64
  %48 = call noalias ptr @av_mallocz(i64 noundef %47)
  %49 = load ptr, ptr %4, align 8, !tbaa !29
  %50 = getelementptr inbounds nuw %struct.Vp3DecodeContext, ptr %49, i32 0, i32 34
  store ptr %48, ptr %50, align 16, !tbaa !180
  %51 = load ptr, ptr %4, align 8, !tbaa !29
  %52 = getelementptr inbounds nuw %struct.Vp3DecodeContext, ptr %51, i32 0, i32 42
  %53 = load i32, ptr %52, align 4, !tbaa !86
  %54 = sext i32 %53 to i64
  %55 = call noalias ptr @av_calloc(i64 noundef %54, i64 noundef 4)
  %56 = load ptr, ptr %4, align 8, !tbaa !29
  %57 = getelementptr inbounds nuw %struct.Vp3DecodeContext, ptr %56, i32 0, i32 45
  store ptr %55, ptr %57, align 8, !tbaa !64
  %58 = load ptr, ptr %4, align 8, !tbaa !29
  %59 = getelementptr inbounds nuw %struct.Vp3DecodeContext, ptr %58, i32 0, i32 42
  %60 = load i32, ptr %59, align 4, !tbaa !86
  %61 = sext i32 %60 to i64
  %62 = call noalias ptr @av_calloc(i64 noundef %61, i64 noundef 4)
  %63 = load ptr, ptr %4, align 8, !tbaa !29
  %64 = getelementptr inbounds nuw %struct.Vp3DecodeContext, ptr %63, i32 0, i32 63
  store ptr %62, ptr %64, align 16, !tbaa !186
  %65 = load ptr, ptr %4, align 8, !tbaa !29
  %66 = getelementptr inbounds nuw %struct.Vp3DecodeContext, ptr %65, i32 0, i32 42
  %67 = load i32, ptr %66, align 4, !tbaa !86
  %68 = sext i32 %67 to i64
  %69 = call noalias ptr @av_calloc(i64 noundef %68, i64 noundef 4)
  %70 = load ptr, ptr %4, align 8, !tbaa !29
  %71 = getelementptr inbounds nuw %struct.Vp3DecodeContext, ptr %70, i32 0, i32 64
  store ptr %69, ptr %71, align 8, !tbaa !187
  %72 = load ptr, ptr %4, align 8, !tbaa !29
  %73 = getelementptr inbounds nuw %struct.Vp3DecodeContext, ptr %72, i32 0, i32 65
  %74 = getelementptr inbounds [3 x i32], ptr %73, i64 0, i64 0
  call void @llvm.memset.p0.i64(ptr align 16 %74, i8 -1, i64 12, i1 false)
  %75 = load ptr, ptr %4, align 8, !tbaa !29
  %76 = getelementptr inbounds nuw %struct.Vp3DecodeContext, ptr %75, i32 0, i32 42
  %77 = load i32, ptr %76, align 4, !tbaa !86
  %78 = sext i32 %77 to i64
  %79 = call noalias ptr @av_calloc(i64 noundef %78, i64 noundef 128)
  %80 = load ptr, ptr %4, align 8, !tbaa !29
  %81 = getelementptr inbounds nuw %struct.Vp3DecodeContext, ptr %80, i32 0, i32 59
  store ptr %79, ptr %81, align 8, !tbaa !228
  %82 = load i32, ptr %5, align 4, !tbaa !31
  %83 = sext i32 %82 to i64
  %84 = call noalias ptr @av_calloc(i64 noundef %83, i64 noundef 2)
  %85 = load ptr, ptr %4, align 8, !tbaa !29
  %86 = getelementptr inbounds nuw %struct.Vp3DecodeContext, ptr %85, i32 0, i32 51
  %87 = getelementptr inbounds [2 x ptr], ptr %86, i64 0, i64 0
  store ptr %84, ptr %87, align 16, !tbaa !53
  %88 = load i32, ptr %6, align 4, !tbaa !31
  %89 = sext i32 %88 to i64
  %90 = call noalias ptr @av_calloc(i64 noundef %89, i64 noundef 2)
  %91 = load ptr, ptr %4, align 8, !tbaa !29
  %92 = getelementptr inbounds nuw %struct.Vp3DecodeContext, ptr %91, i32 0, i32 51
  %93 = getelementptr inbounds [2 x ptr], ptr %92, i64 0, i64 1
  store ptr %90, ptr %93, align 8, !tbaa !53
  %94 = load ptr, ptr %4, align 8, !tbaa !29
  %95 = getelementptr inbounds nuw %struct.Vp3DecodeContext, ptr %94, i32 0, i32 25
  %96 = load i32, ptr %95, align 8, !tbaa !117
  %97 = sext i32 %96 to i64
  %98 = call noalias ptr @av_calloc(i64 noundef %97, i64 noundef 64)
  %99 = load ptr, ptr %4, align 8, !tbaa !29
  %100 = getelementptr inbounds nuw %struct.Vp3DecodeContext, ptr %99, i32 0, i32 69
  store ptr %98, ptr %100, align 16, !tbaa !188
  %101 = load ptr, ptr %4, align 8, !tbaa !29
  %102 = getelementptr inbounds nuw %struct.Vp3DecodeContext, ptr %101, i32 0, i32 35
  %103 = load i32, ptr %102, align 8, !tbaa !120
  %104 = add nsw i32 %103, 1
  %105 = sext i32 %104 to i64
  %106 = call noalias ptr @av_mallocz(i64 noundef %105)
  %107 = load ptr, ptr %4, align 8, !tbaa !29
  %108 = getelementptr inbounds nuw %struct.Vp3DecodeContext, ptr %107, i32 0, i32 70
  store ptr %106, ptr %108, align 8, !tbaa !185
  %109 = load ptr, ptr %4, align 8, !tbaa !29
  %110 = getelementptr inbounds nuw %struct.Vp3DecodeContext, ptr %109, i32 0, i32 26
  %111 = load i32, ptr %110, align 4, !tbaa !111
  %112 = mul nsw i32 %111, 4
  %113 = sext i32 %112 to i64
  %114 = call ptr @av_malloc_array(i64 noundef %113, i64 noundef 8)
  %115 = load ptr, ptr %4, align 8, !tbaa !29
  %116 = getelementptr inbounds nuw %struct.Vp3DecodeContext, ptr %115, i32 0, i32 75
  store ptr %114, ptr %116, align 16, !tbaa !239
  %117 = load ptr, ptr %4, align 8, !tbaa !29
  %118 = getelementptr inbounds nuw %struct.Vp3DecodeContext, ptr %117, i32 0, i32 34
  %119 = load ptr, ptr %118, align 16, !tbaa !180
  %120 = icmp ne ptr %119, null
  br i1 %120, label %121, label %168

121:                                              ; preds = %45
  %122 = load ptr, ptr %4, align 8, !tbaa !29
  %123 = getelementptr inbounds nuw %struct.Vp3DecodeContext, ptr %122, i32 0, i32 45
  %124 = load ptr, ptr %123, align 8, !tbaa !64
  %125 = icmp ne ptr %124, null
  br i1 %125, label %126, label %168

126:                                              ; preds = %121
  %127 = load ptr, ptr %4, align 8, !tbaa !29
  %128 = getelementptr inbounds nuw %struct.Vp3DecodeContext, ptr %127, i32 0, i32 59
  %129 = load ptr, ptr %128, align 8, !tbaa !228
  %130 = icmp ne ptr %129, null
  br i1 %130, label %131, label %168

131:                                              ; preds = %126
  %132 = load ptr, ptr %4, align 8, !tbaa !29
  %133 = getelementptr inbounds nuw %struct.Vp3DecodeContext, ptr %132, i32 0, i32 63
  %134 = load ptr, ptr %133, align 16, !tbaa !186
  %135 = icmp ne ptr %134, null
  br i1 %135, label %136, label %168

136:                                              ; preds = %131
  %137 = load ptr, ptr %4, align 8, !tbaa !29
  %138 = getelementptr inbounds nuw %struct.Vp3DecodeContext, ptr %137, i32 0, i32 64
  %139 = load ptr, ptr %138, align 8, !tbaa !187
  %140 = icmp ne ptr %139, null
  br i1 %140, label %141, label %168

141:                                              ; preds = %136
  %142 = load ptr, ptr %4, align 8, !tbaa !29
  %143 = getelementptr inbounds nuw %struct.Vp3DecodeContext, ptr %142, i32 0, i32 69
  %144 = load ptr, ptr %143, align 16, !tbaa !188
  %145 = icmp ne ptr %144, null
  br i1 %145, label %146, label %168

146:                                              ; preds = %141
  %147 = load ptr, ptr %4, align 8, !tbaa !29
  %148 = getelementptr inbounds nuw %struct.Vp3DecodeContext, ptr %147, i32 0, i32 70
  %149 = load ptr, ptr %148, align 8, !tbaa !185
  %150 = icmp ne ptr %149, null
  br i1 %150, label %151, label %168

151:                                              ; preds = %146
  %152 = load ptr, ptr %4, align 8, !tbaa !29
  %153 = getelementptr inbounds nuw %struct.Vp3DecodeContext, ptr %152, i32 0, i32 75
  %154 = load ptr, ptr %153, align 16, !tbaa !239
  %155 = icmp ne ptr %154, null
  br i1 %155, label %156, label %168

156:                                              ; preds = %151
  %157 = load ptr, ptr %4, align 8, !tbaa !29
  %158 = getelementptr inbounds nuw %struct.Vp3DecodeContext, ptr %157, i32 0, i32 51
  %159 = getelementptr inbounds [2 x ptr], ptr %158, i64 0, i64 0
  %160 = load ptr, ptr %159, align 16, !tbaa !53
  %161 = icmp ne ptr %160, null
  br i1 %161, label %162, label %168

162:                                              ; preds = %156
  %163 = load ptr, ptr %4, align 8, !tbaa !29
  %164 = getelementptr inbounds nuw %struct.Vp3DecodeContext, ptr %163, i32 0, i32 51
  %165 = getelementptr inbounds [2 x ptr], ptr %164, i64 0, i64 1
  %166 = load ptr, ptr %165, align 8, !tbaa !53
  %167 = icmp ne ptr %166, null
  br i1 %167, label %169, label %168

168:                                              ; preds = %162, %156, %151, %146, %141, %136, %131, %126, %121, %45
  store i32 -1, ptr %2, align 4
  store i32 1, ptr %7, align 4
  br label %172

169:                                              ; preds = %162
  %170 = load ptr, ptr %4, align 8, !tbaa !29
  %171 = call i32 @init_block_mapping(ptr noundef %170)
  store i32 0, ptr %2, align 4
  store i32 1, ptr %7, align 4
  br label %172

172:                                              ; preds = %169, %168
  call void @llvm.lifetime.end.p0(i64 4, ptr %6) #9
  call void @llvm.lifetime.end.p0(i64 4, ptr %5) #9
  call void @llvm.lifetime.end.p0(i64 8, ptr %4) #9
  %173 = load i32, ptr %2, align 4
  ret i32 %173
}