; Function Attrs: cold nounwind optsize uwtable
define internal fastcc range(i32 -1, 1) i32 @allocate_tables(ptr %.32.val) unnamed_addr #1 {
  tail call fastcc void @free_tables(ptr %.32.val) #10
  %1 = getelementptr inbounds nuw i8, ptr %.32.val, i64 968
  %2 = load i32, ptr %1, align 8, !tbaa !42
  %3 = getelementptr inbounds nuw i8, ptr %.32.val, i64 976
  %4 = load i32, ptr %3, align 16, !tbaa !42
  %5 = mul nsw i32 %4, %2
  %6 = getelementptr inbounds nuw i8, ptr %.32.val, i64 972
  %7 = load i32, ptr %6, align 4, !tbaa !42
  %8 = getelementptr inbounds nuw i8, ptr %.32.val, i64 980
  %9 = load i32, ptr %8, align 4, !tbaa !42
  %10 = mul nsw i32 %9, %7
  %11 = getelementptr inbounds nuw i8, ptr %.32.val, i64 888
  %12 = load i32, ptr %11, align 8, !tbaa !97
  %13 = getelementptr inbounds nuw i8, ptr %.32.val, i64 960
  %14 = load i32, ptr %13, align 16, !tbaa !113
  %. = tail call i32 @llvm.smax.i32(i32 %12, i32 %14)
  %15 = sext i32 %. to i64
  %16 = tail call noalias ptr @av_mallocz(i64 noundef %15) #9
  %17 = getelementptr inbounds nuw i8, ptr %.32.val, i64 928
  store ptr %16, ptr %17, align 16, !tbaa !96
  %18 = getelementptr inbounds nuw i8, ptr %.32.val, i64 964
  %19 = load i32, ptr %18, align 4, !tbaa !93
  %20 = sext i32 %19 to i64
  %21 = tail call noalias ptr @av_calloc(i64 noundef %20, i64 noundef 4) #9
  %22 = getelementptr inbounds nuw i8, ptr %.32.val, i64 984
  store ptr %21, ptr %22, align 8, !tbaa !67
  %23 = load i32, ptr %18, align 4, !tbaa !93
  %24 = sext i32 %23 to i64
  %25 = tail call noalias ptr @av_calloc(i64 noundef %24, i64 noundef 4) #9
  %26 = getelementptr inbounds nuw i8, ptr %.32.val, i64 29632
  store ptr %25, ptr %26, align 16, !tbaa !267
  %27 = load i32, ptr %18, align 4, !tbaa !93
  %28 = sext i32 %27 to i64
  %29 = tail call noalias ptr @av_calloc(i64 noundef %28, i64 noundef 4) #9
  %30 = getelementptr inbounds nuw i8, ptr %.32.val, i64 29640
  store ptr %29, ptr %30, align 8, !tbaa !268
  %31 = getelementptr inbounds nuw i8, ptr %.32.val, i64 29648
  tail call void @llvm.memset.p0.i64(ptr noundef nonnull align 16 dereferenceable(12) %31, i8 -1, i64 12, i1 false)
  %32 = load i32, ptr %18, align 4, !tbaa !93
  %33 = sext i32 %32 to i64
  %34 = tail call noalias ptr @av_calloc(i64 noundef %33, i64 noundef 128) #9
  %35 = getelementptr inbounds nuw i8, ptr %.32.val, i64 28824
  store ptr %34, ptr %35, align 8, !tbaa !223
  %36 = sext i32 %5 to i64
  %37 = tail call noalias ptr @av_calloc(i64 noundef %36, i64 noundef 2) #9
  %38 = getelementptr inbounds nuw i8, ptr %.32.val, i64 1024
  store ptr %37, ptr %38, align 16, !tbaa !53
  %39 = sext i32 %10 to i64
  %40 = tail call noalias ptr @av_calloc(i64 noundef %39, i64 noundef 2) #9
  %41 = getelementptr inbounds nuw i8, ptr %.32.val, i64 1032
  store ptr %40, ptr %41, align 8, !tbaa !53
  %42 = load i32, ptr %11, align 8, !tbaa !97
  %43 = sext i32 %42 to i64
  %44 = tail call noalias ptr @av_calloc(i64 noundef %43, i64 noundef 64) #9
  %45 = getelementptr inbounds nuw i8, ptr %.32.val, i64 31984
  store ptr %44, ptr %45, align 16, !tbaa !105
  %46 = getelementptr inbounds nuw i8, ptr %.32.val, i64 936
  %47 = load i32, ptr %46, align 8, !tbaa !103
  %48 = add nsw i32 %47, 1
  %49 = sext i32 %48 to i64
  %50 = tail call noalias ptr @av_mallocz(i64 noundef %49) #9
  %51 = getelementptr inbounds nuw i8, ptr %.32.val, i64 31992
  store ptr %50, ptr %51, align 8, !tbaa !102
  %52 = getelementptr inbounds nuw i8, ptr %.32.val, i64 892
  %53 = load i32, ptr %52, align 4, !tbaa !126
  %54 = shl nsw i32 %53, 2
  %55 = sext i32 %54 to i64
  %56 = tail call ptr @av_malloc_array(i64 noundef %55, i64 noundef 8) #9
  %57 = getelementptr inbounds nuw i8, ptr %.32.val, i64 38304
  store ptr %56, ptr %57, align 16, !tbaa !235
  %58 = load ptr, ptr %17, align 16, !tbaa !96
  %.not = icmp eq ptr %58, null
  br i1 %.not, label %76, label %59

59:                                               ; preds = %0
  %60 = load ptr, ptr %22, align 8, !tbaa !67
  %.not43 = icmp eq ptr %60, null
  br i1 %.not43, label %76, label %61

61:                                               ; preds = %59
  %62 = load ptr, ptr %35, align 8, !tbaa !223
  %.not44 = icmp eq ptr %62, null
  br i1 %.not44, label %76, label %63

63:                                               ; preds = %61
  %64 = load ptr, ptr %26, align 16, !tbaa !267
  %.not45 = icmp eq ptr %64, null
  br i1 %.not45, label %76, label %65

65:                                               ; preds = %63
  %66 = load ptr, ptr %30, align 8, !tbaa !268
  %.not46 = icmp eq ptr %66, null
  br i1 %.not46, label %76, label %67

67:                                               ; preds = %65
  %68 = load ptr, ptr %45, align 16, !tbaa !105
  %.not47 = icmp eq ptr %68, null
  br i1 %.not47, label %76, label %69

69:                                               ; preds = %67
  %70 = load ptr, ptr %51, align 8, !tbaa !102
  %.not48 = icmp eq ptr %70, null
  %.not49 = icmp eq ptr %56, null
  %or.cond = select i1 %.not48, i1 true, i1 %.not49
  br i1 %or.cond, label %76, label %71

71:                                               ; preds = %69
  %72 = load ptr, ptr %38, align 16, !tbaa !53
  %.not50 = icmp eq ptr %72, null
  br i1 %.not50, label %76, label %73

73:                                               ; preds = %71
  %74 = load ptr, ptr %41, align 8, !tbaa !53
  %.not51 = icmp eq ptr %74, null
  br i1 %.not51, label %76, label %75

75:                                               ; preds = %73
  tail call fastcc void @init_block_mapping(ptr noundef nonnull %.32.val)
  br label %76

76:                                               ; preds = %0, %59, %61, %63, %65, %67, %69, %71, %73, %75
  %.0 = phi i32 [ 0, %75 ], [ -1, %73 ], [ -1, %71 ], [ -1, %69 ], [ -1, %67 ], [ -1, %65 ], [ -1, %63 ], [ -1, %61 ], [ -1, %59 ], [ -1, %0 ]
  ret i32 %.0
}